target datalayout = "e-m:e-p270:32:32-p271:32:32-p272:64:64-i64:64-i128:128-f80:128-n8:16:32:64-S128"
target triple = "x86_64-pc-linux-gnu"

%"class.cv::dpm::Feature" = type { i32, %"class.cv::dpm::PyramidParameter" }
%"class.cv::dpm::PyramidParameter" = type { i32, i32, i32, i32, double, i32, %"class.std::vector" }
%"class.std::vector" = type { %"struct.std::_Vector_base" }
%"struct.std::_Vector_base" = type { %"struct.std::_Vector_base<double, std::allocator<double>>::_Vector_impl" }
%"struct.std::_Vector_base<double, std::allocator<double>>::_Vector_impl" = type { %"struct.std::_Vector_base<double, std::allocator<double>>::_Vector_impl_data" }
%"struct.std::_Vector_base<double, std::allocator<double>>::_Vector_impl_data" = type { ptr, ptr, ptr }
%"class.cv::Size_.8" = type { i32, i32 }
%"class.cv::Mat" = type { i32, i32, i32, i32, ptr, ptr, ptr, ptr, ptr, ptr, %"struct.cv::MatSize", %"struct.cv::MatStep" }
%"struct.cv::MatSize" = type { ptr }
%"struct.cv::MatStep" = type { ptr, [2 x i64] }
%"class.cv::MatExpr" = type { ptr, i32, %"class.cv::Mat", %"class.cv::Mat", %"class.cv::Mat", double, double, %"class.cv::Scalar_" }
%"class.cv::Scalar_" = type { %"class.cv::Vec" }
%"class.cv::Vec" = type { %"class.cv::Matx" }
%"class.cv::Matx" = type { [4 x double] }

; Function Attrs: inlinehint mustprogress nounwind uwtable
define linkonce_odr hidden noundef nonnull align 8 dereferenceable(8) ptr @_ZN2cv3Mat2atIdEERT_ii(ptr noundef nonnull align 8 dereferenceable(96) %0, i32 noundef %1, i32 noundef %2) #5 comdat align 2 {
  %4 = alloca ptr, align 8
  %5 = alloca i32, align 4
  %6 = alloca i32, align 4
  store ptr %0, ptr %4, align 8, !tbaa !24
  store i32 %1, ptr %5, align 4, !tbaa !36
  store i32 %2, ptr %6, align 4, !tbaa !36
  %7 = load ptr, ptr %4, align 8
  %8 = getelementptr inbounds nuw %"class.cv::Mat", ptr %7, i32 0, i32 4
  %9 = load ptr, ptr %8, align 8, !tbaa !116
  %10 = getelementptr inbounds nuw %"class.cv::Mat", ptr %7, i32 0, i32 11
  %11 = getelementptr inbounds nuw %"struct.cv::MatStep", ptr %10, i32 0, i32 0
  %12 = load ptr, ptr %11, align 8, !tbaa !117
  %13 = getelementptr inbounds i64, ptr %12, i64 0
  %14 = load i64, ptr %13, align 8, !tbaa !71
  %15 = load i32, ptr %5, align 4, !tbaa !36
  %16 = sext i32 %15 to i64
  %17 = mul i64 %14, %16
  %18 = getelementptr inbounds nuw i8, ptr %9, i64 %17
  %19 = load i32, ptr %6, align 4, !tbaa !36
  %20 = sext i32 %19 to i64
  %21 = getelementptr inbounds double, ptr %18, i64 %20
  ret ptr %21
}

; Function Attrs: inlinehint mustprogress nounwind uwtable
define linkonce_odr noundef nonnull align 4 dereferenceable(4) ptr @_ZSt3minIiERKT_S2_S2_(ptr noundef nonnull align 4 dereferenceable(4) %0, ptr noundef nonnull align 4 dereferenceable(4) %1) #5 comdat {
  %3 = alloca ptr, align 8
  %4 = alloca ptr, align 8
  %5 = alloca ptr, align 8
  store ptr %0, ptr %4, align 8, !tbaa !106
  store ptr %1, ptr %5, align 8, !tbaa !106
  %6 = load ptr, ptr %5, align 8, !tbaa !106
  %7 = load i32, ptr %6, align 4, !tbaa !36
  %8 = load ptr, ptr %4, align 8, !tbaa !106
  %9 = load i32, ptr %8, align 4, !tbaa !36
  %10 = icmp slt i32 %7, %9
  br i1 %10, label %11, label %13

11:                                               ; preds = %2
  %12 = load ptr, ptr %5, align 8, !tbaa !106
  store ptr %12, ptr %3, align 8
  br label %15

13:                                               ; preds = %2
  %14 = load ptr, ptr %4, align 8, !tbaa !106
  store ptr %14, ptr %3, align 8
  br label %15

15:                                               ; preds = %13, %11
  %16 = load ptr, ptr %3, align 8
  ret ptr %16
}

; Function Attrs: inlinehint mustprogress uwtable
define linkonce_odr hidden noundef nonnull align 8 dereferenceable(96) ptr @_ZN2cv3MataSERKNS_7MatExprE(ptr noundef nonnull align 8 dereferenceable(96) %0, ptr noundef nonnull align 8 dereferenceable(352) %1) #2 comdat align 2 {
  %3 = alloca ptr, align 8
  %4 = alloca ptr, align 8
  store ptr %0, ptr %3, align 8, !tbaa !24
  store ptr %1, ptr %4, align 8, !tbaa !108
  %5 = load ptr, ptr %3, align 8
  %6 = load ptr, ptr %4, align 8, !tbaa !108
  %7 = getelementptr inbounds nuw %"class.cv::MatExpr", ptr %6, i32 0, i32 0
  %8 = load ptr, ptr %7, align 8, !tbaa !110
  %9 = load ptr, ptr %4, align 8, !tbaa !108
  %10 = load ptr, ptr %8, align 8, !tbaa !46
  %11 = getelementptr inbounds ptr, ptr %10, i64 3
  %12 = load ptr, ptr %11, align 8
  call void %12(ptr noundef nonnull align 8 dereferenceable(8) %8, ptr noundef nonnull align 8 dereferenceable(352) %9, ptr noundef nonnull align 8 dereferenceable(96) %5, i32 noundef -1)
  ret ptr %5
}

; Function Attrs: inlinehint mustprogress nounwind uwtable
define linkonce_odr hidden void @_ZN2cv5Size_IiEC2Eii(ptr noundef nonnull align 4 dereferenceable(8) %0, i32 noundef %1, i32 noundef %2) unnamed_addr #5 comdat align 2 {
  %4 = alloca ptr, align 8
  %5 = alloca i32, align 4
  %6 = alloca i32, align 4
  store ptr %0, ptr %4, align 8, !tbaa !65
  store i32 %1, ptr %5, align 4, !tbaa !36
  store i32 %2, ptr %6, align 4, !tbaa !36
  %7 = load ptr, ptr %4, align 8
  %8 = getelementptr inbounds nuw %"class.cv::Size_.8", ptr %7, i32 0, i32 0
  %9 = load i32, ptr %5, align 4, !tbaa !36
  store i32 %9, ptr %8, align 4, !tbaa !67
  %10 = getelementptr inbounds nuw %"class.cv::Size_.8", ptr %7, i32 0, i32 1
  %11 = load i32, ptr %6, align 4, !tbaa !36
  store i32 %11, ptr %10, align 4, !tbaa !69
  ret void
}

; Function Attrs: mustprogress uwtable
define hidden void @_ZN2cv3dpm7Feature23computeLocationFeaturesEiRNS_3MatE(ptr noundef nonnull align 8 dereferenceable(64) %0, i32 noundef %1, ptr noundef nonnull align 8 dereferenceable(96) %2) #0 align 2 personality ptr @__gxx_personality_v0 {
  %4 = alloca ptr, align 8
  %5 = alloca i32, align 4
  %6 = alloca ptr, align 8
  %7 = alloca %"class.cv::MatExpr", align 8
  %8 = alloca %"class.cv::Size_.8", align 4
  %9 = alloca ptr, align 8
  %10 = alloca i32, align 4
  %11 = alloca i32, align 4
  %12 = alloca i32, align 4
  %13 = alloca i32, align 4
  %14 = alloca i32, align 4
  %15 = alloca i32, align 4
  %16 = alloca i32, align 4
  %17 = alloca i32, align 4
  store ptr %0, ptr %4, align 8, !tbaa !3
  store i32 %1, ptr %5, align 4, !tbaa !36
  store ptr %2, ptr %6, align 8, !tbaa !24
  %18 = load ptr, ptr %4, align 8
  call void @llvm.lifetime.start.p0(i64 352, ptr %7) #17
  %19 = load i32, ptr %5, align 4, !tbaa !36
  call void @_ZN2cv5Size_IiEC2Eii(ptr noundef nonnull align 4 dereferenceable(8) %8, i32 noundef %19, i32 noundef 3)
  %20 = load i64, ptr %8, align 4
  call void @_ZN2cv3Mat5zerosENS_5Size_IiEEi(ptr dead_on_unwind writable sret(%"class.cv::MatExpr") align 8 %7, i64 %20, i32 noundef 6)
  %21 = load ptr, ptr %6, align 8, !tbaa !24
  %22 = invoke noundef nonnull align 8 dereferenceable(96) ptr @_ZN2cv3MataSERKNS_7MatExprE(ptr noundef nonnull align 8 dereferenceable(96) %21, ptr noundef nonnull align 8 dereferenceable(352) %7)
          to label %23 unwind label %34

23:                                               ; preds = %3
  call void @_ZN2cv7MatExprD2Ev(ptr noundef nonnull align 8 dereferenceable(352) %7) #17
  call void @llvm.lifetime.end.p0(i64 352, ptr %7) #17
  call void @llvm.lifetime.start.p0(i64 4, ptr %11) #17
  store i32 0, ptr %11, align 4, !tbaa !36
  call void @llvm.lifetime.start.p0(i64 4, ptr %12) #17
  %24 = getelementptr inbounds nuw %"class.cv::dpm::Feature", ptr %18, i32 0, i32 1
  %25 = getelementptr inbounds nuw %"class.cv::dpm::PyramidParameter", ptr %24, i32 0, i32 0
  %26 = call noundef nonnull align 4 dereferenceable(4) ptr @_ZSt3minIiERKT_S2_S2_(ptr noundef nonnull align 4 dereferenceable(4) %5, ptr noundef nonnull align 4 dereferenceable(4) %25)
  %27 = load i32, ptr %26, align 4, !tbaa !36
  store i32 %27, ptr %12, align 4, !tbaa !36
  call void @llvm.lifetime.start.p0(i64 4, ptr %13) #17
  %28 = load i32, ptr %11, align 4, !tbaa !36
  store i32 %28, ptr %13, align 4, !tbaa !36
  br label %29

29:                                               ; preds = %42, %23
  %30 = load i32, ptr %13, align 4, !tbaa !36
  %31 = load i32, ptr %12, align 4, !tbaa !36
  %32 = icmp slt i32 %30, %31
  br i1 %32, label %38, label %33

33:                                               ; preds = %29
  call void @llvm.lifetime.end.p0(i64 4, ptr %13) #17
  br label %45

34:                                               ; preds = %3
  %35 = landingpad { ptr, i32 }
          cleanup
  %36 = extractvalue { ptr, i32 } %35, 0
  store ptr %36, ptr %9, align 8
  %37 = extractvalue { ptr, i32 } %35, 1
  store i32 %37, ptr %10, align 4
  call void @_ZN2cv7MatExprD2Ev(ptr noundef nonnull align 8 dereferenceable(352) %7) #17
  call void @llvm.lifetime.end.p0(i64 352, ptr %7) #17
  br label %84

38:                                               ; preds = %29
  %39 = load ptr, ptr %6, align 8, !tbaa !24
  %40 = load i32, ptr %13, align 4, !tbaa !36
  %41 = call noundef nonnull align 8 dereferenceable(8) ptr @_ZN2cv3Mat2atIdEERT_ii(ptr noundef nonnull align 8 dereferenceable(96) %39, i32 noundef 0, i32 noundef %40)
  store double 1.000000e+00, ptr %41, align 8, !tbaa !39
  br label %42

42:                                               ; preds = %38
  %43 = load i32, ptr %13, align 4, !tbaa !36
  %44 = add nsw i32 %43, 1
  store i32 %44, ptr %13, align 4, !tbaa !36
  br label %29, !llvm.loop !125

45:                                               ; preds = %33
  %46 = load i32, ptr %12, align 4, !tbaa !36
  store i32 %46, ptr %11, align 4, !tbaa !36
  call void @llvm.lifetime.start.p0(i64 4, ptr %14) #17
  %47 = load i32, ptr %12, align 4, !tbaa !36
  %48 = mul nsw i32 2, %47
  store i32 %48, ptr %14, align 4, !tbaa !36
  %49 = call noundef nonnull align 4 dereferenceable(4) ptr @_ZSt3minIiERKT_S2_S2_(ptr noundef nonnull align 4 dereferenceable(4) %5, ptr noundef nonnull align 4 dereferenceable(4) %14)
  %50 = load i32, ptr %49, align 4, !tbaa !36
  store i32 %50, ptr %12, align 4, !tbaa !36
  call void @llvm.lifetime.end.p0(i64 4, ptr %14) #17
  call void @llvm.lifetime.start.p0(i64 4, ptr %15) #17
  %51 = load i32, ptr %11, align 4, !tbaa !36
  store i32 %51, ptr %15, align 4, !tbaa !36
  br label %52

52:                                               ; preds = %61, %45
  %53 = load i32, ptr %15, align 4, !tbaa !36
  %54 = load i32, ptr %12, align 4, !tbaa !36
  %55 = icmp slt i32 %53, %54
  br i1 %55, label %57, label %56

56:                                               ; preds = %52
  call void @llvm.lifetime.end.p0(i64 4, ptr %15) #17
  br label %64

57:                                               ; preds = %52
  %58 = load ptr, ptr %6, align 8, !tbaa !24
  %59 = load i32, ptr %15, align 4, !tbaa !36
  %60 = call noundef nonnull align 8 dereferenceable(8) ptr @_ZN2cv3Mat2atIdEERT_ii(ptr noundef nonnull align 8 dereferenceable(96) %58, i32 noundef 1, i32 noundef %59)
  store double 1.000000e+00, ptr %60, align 8, !tbaa !39
  br label %61

61:                                               ; preds = %57
  %62 = load i32, ptr %15, align 4, !tbaa !36
  %63 = add nsw i32 %62, 1
  store i32 %63, ptr %15, align 4, !tbaa !36
  br label %52, !llvm.loop !126

64:                                               ; preds = %56
  %65 = load i32, ptr %12, align 4, !tbaa !36
  store i32 %65, ptr %11, align 4, !tbaa !36
  call void @llvm.lifetime.start.p0(i64 4, ptr %16) #17
  %66 = load i32, ptr %12, align 4, !tbaa !36
  %67 = mul nsw i32 3, %66
  store i32 %67, ptr %16, align 4, !tbaa !36
  %68 = call noundef nonnull align 4 dereferenceable(4) ptr @_ZSt3minIiERKT_S2_S2_(ptr noundef nonnull align 4 dereferenceable(4) %5, ptr noundef nonnull align 4 dereferenceable(4) %16)
  %69 = load i32, ptr %68, align 4, !tbaa !36
  store i32 %69, ptr %12, align 4, !tbaa !36
  call void @llvm.lifetime.end.p0(i64 4, ptr %16) #17
  call void @llvm.lifetime.start.p0(i64 4, ptr %17) #17
  %70 = load i32, ptr %11, align 4, !tbaa !36
  store i32 %70, ptr %17, align 4, !tbaa !36
  br label %71

71:                                               ; preds = %80, %64
  %72 = load i32, ptr %17, align 4, !tbaa !36
  %73 = load i32, ptr %12, align 4, !tbaa !36
  %74 = icmp slt i32 %72, %73
  br i1 %74, label %76, label %75

75:                                               ; preds = %71
  call void @llvm.lifetime.end.p0(i64 4, ptr %17) #17
  br label %83

76:                                               ; preds = %71
  %77 = load ptr, ptr %6, align 8, !tbaa !24
  %78 = load i32, ptr %17, align 4, !tbaa !36
  %79 = call noundef nonnull align 8 dereferenceable(8) ptr @_ZN2cv3Mat2atIdEERT_ii(ptr noundef nonnull align 8 dereferenceable(96) %77, i32 noundef 2, i32 noundef %78)
  store double 1.000000e+00, ptr %79, align 8, !tbaa !39
  br label %80

80:                                               ; preds = %76
  %81 = load i32, ptr %17, align 4, !tbaa !36
  %82 = add nsw i32 %81, 1
  store i32 %82, ptr %17, align 4, !tbaa !36
  br label %71, !llvm.loop !127

83:                                               ; preds = %75
  call void @llvm.lifetime.end.p0(i64 4, ptr %12) #17
  call void @llvm.lifetime.end.p0(i64 4, ptr %11) #17
  ret void

84:                                               ; preds = %34
  %85 = load ptr, ptr %9, align 8
  %86 = load i32, ptr %10, align 4
  %87 = insertvalue { ptr, i32 } poison, ptr %85, 0
  %88 = insertvalue { ptr, i32 } %87, i32 %86, 1
  resume { ptr, i32 } %88
}