; Function Attrs: mustprogress uwtable
define hidden void @_ZN2cv3dpm7Feature23computeLocationFeaturesEiRNS_3MatE(ptr noundef nonnull readonly align 8 captures(none) dereferenceable(64) %0, i32 noundef %1, ptr noundef nonnull align 8 dereferenceable(96) %2) local_unnamed_addr #1 align 2 personality ptr @__gxx_personality_v0 {
  %4 = alloca %"class.cv::MatExpr", align 8
  call void @llvm.lifetime.start.p0(i64 352, ptr nonnull %4) #19
  %.sroa.0.0.insert.ext = zext i32 %1 to i64
  %.sroa.0.0.insert.insert = or disjoint i64 %.sroa.0.0.insert.ext, 12884901888
  call void @_ZN2cv3Mat5zerosENS_5Size_IiEEi(ptr dead_on_unwind nonnull writable sret(%"class.cv::MatExpr") align 8 %4, i64 %.sroa.0.0.insert.insert, i32 noundef 6)
  %5 = load ptr, ptr %4, align 8, !tbaa !74
  %6 = load ptr, ptr %5, align 8, !tbaa !25
  %7 = getelementptr inbounds nuw i8, ptr %6, i64 24
  %8 = load ptr, ptr %7, align 8
  invoke void %8(ptr noundef nonnull align 8 dereferenceable(8) %5, ptr noundef nonnull align 8 dereferenceable(352) %4, ptr noundef nonnull align 8 dereferenceable(96) %2, i32 noundef -1)
          to label %_ZN2cv3MataSERKNS_7MatExprE.exit unwind label %28

_ZN2cv3MataSERKNS_7MatExprE.exit:                 ; preds = %3
  %9 = getelementptr inbounds nuw i8, ptr %4, i64 208
  call void @_ZN2cv3MatD1Ev(ptr noundef nonnull align 8 dereferenceable(96) %9) #19
  %10 = getelementptr inbounds nuw i8, ptr %4, i64 112
  call void @_ZN2cv3MatD1Ev(ptr noundef nonnull align 8 dereferenceable(96) %10) #19
  %11 = getelementptr inbounds nuw i8, ptr %4, i64 16
  call void @_ZN2cv3MatD1Ev(ptr noundef nonnull align 8 dereferenceable(96) %11) #19
  call void @llvm.lifetime.end.p0(i64 352, ptr nonnull %4) #19
  %12 = getelementptr inbounds nuw i8, ptr %0, i64 8
  %13 = load i32, ptr %12, align 8, !tbaa !52
  %.sroa.speculated39 = call i32 @llvm.smin.i32(i32 %13, i32 %1)
  %14 = icmp sgt i32 %.sroa.speculated39, 0
  br i1 %14, label %.lr.ph, label %._crit_edge

.lr.ph:                                           ; preds = %_ZN2cv3MataSERKNS_7MatExprE.exit
  %15 = getelementptr inbounds nuw i8, ptr %2, i64 16
  %16 = load ptr, ptr %15, align 8, !tbaa !86
  %wide.trip.count = zext nneg i32 %.sroa.speculated39 to i64
  br label %30

._crit_edge:                                      ; preds = %30, %_ZN2cv3MataSERKNS_7MatExprE.exit
  %17 = shl nsw i32 %.sroa.speculated39, 1
  %.sroa.speculated33 = call i32 @llvm.smin.i32(i32 %17, i32 %1)
  %18 = icmp slt i32 %13, %.sroa.speculated33
  br i1 %18, label %.lr.ph49, label %._crit_edge50

.lr.ph49:                                         ; preds = %._crit_edge
  %19 = getelementptr inbounds nuw i8, ptr %2, i64 16
  %20 = load ptr, ptr %19, align 8, !tbaa !86
  %21 = getelementptr inbounds nuw i8, ptr %2, i64 72
  %22 = load ptr, ptr %21, align 8, !tbaa !87
  %23 = load i64, ptr %22, align 8, !tbaa !101
  %24 = getelementptr inbounds nuw i8, ptr %20, i64 %23
  %25 = call i32 @llvm.smin.i32(i32 %13, i32 %1)
  %smin = sext i32 %25 to i64
  %26 = add i32 %.sroa.speculated33, %25
  %27 = sub i32 %26, %.sroa.speculated39
  br label %44

28:                                               ; preds = %3
  %29 = landingpad { ptr, i32 }
          cleanup
  call void @_ZN2cv7MatExprD2Ev(ptr noundef nonnull align 8 dereferenceable(352) %4) #19
  call void @llvm.lifetime.end.p0(i64 352, ptr nonnull %4) #19
  resume { ptr, i32 } %29

30:                                               ; preds = %.lr.ph, %30
  %indvars.iv = phi i64 [ 0, %.lr.ph ], [ %indvars.iv.next, %30 ]
  %31 = getelementptr inbounds nuw double, ptr %16, i64 %indvars.iv
  store double 1.000000e+00, ptr %31, align 8, !tbaa !53
  %indvars.iv.next = add nuw nsw i64 %indvars.iv, 1
  %exitcond.not = icmp eq i64 %indvars.iv.next, %wide.trip.count
  br i1 %exitcond.not, label %._crit_edge, label %30, !llvm.loop !112

._crit_edge50:                                    ; preds = %44, %._crit_edge
  %32 = mul nsw i32 %.sroa.speculated33, 3
  %.sroa.speculated = call i32 @llvm.smin.i32(i32 %32, i32 %1)
  %33 = icmp slt i32 %17, %.sroa.speculated
  br i1 %33, label %.lr.ph53, label %._crit_edge54

.lr.ph53:                                         ; preds = %._crit_edge50
  %34 = getelementptr inbounds nuw i8, ptr %2, i64 16
  %35 = load ptr, ptr %34, align 8, !tbaa !86
  %36 = getelementptr inbounds nuw i8, ptr %2, i64 72
  %37 = load ptr, ptr %36, align 8, !tbaa !87
  %38 = load i64, ptr %37, align 8, !tbaa !101
  %39 = shl i64 %38, 1
  %40 = getelementptr inbounds nuw i8, ptr %35, i64 %39
  %41 = call i32 @llvm.smin.i32(i32 %1, i32 %17)
  %smin59 = sext i32 %41 to i64
  %42 = add i32 %.sroa.speculated, %41
  %43 = sub i32 %42, %.sroa.speculated33
  br label %46

44:                                               ; preds = %.lr.ph49, %44
  %indvars.iv56 = phi i64 [ %smin, %.lr.ph49 ], [ %indvars.iv.next57, %44 ]
  %45 = getelementptr inbounds double, ptr %24, i64 %indvars.iv56
  store double 1.000000e+00, ptr %45, align 8, !tbaa !53
  %indvars.iv.next57 = add nsw i64 %indvars.iv56, 1
  %lftr.wideiv = trunc i64 %indvars.iv.next57 to i32
  %exitcond58.not = icmp eq i32 %27, %lftr.wideiv
  br i1 %exitcond58.not, label %._crit_edge50, label %44, !llvm.loop !113

._crit_edge54:                                    ; preds = %46, %._crit_edge50
  ret void

46:                                               ; preds = %.lr.ph53, %46
  %indvars.iv60 = phi i64 [ %smin59, %.lr.ph53 ], [ %indvars.iv.next61, %46 ]
  %47 = getelementptr inbounds double, ptr %40, i64 %indvars.iv60
  store double 1.000000e+00, ptr %47, align 8, !tbaa !53
  %indvars.iv.next61 = add nsw i64 %indvars.iv60, 1
  %lftr.wideiv62 = trunc i64 %indvars.iv.next61 to i32
  %exitcond63.not = icmp eq i32 %43, %lftr.wideiv62
  br i1 %exitcond63.not, label %._crit_edge54, label %46, !llvm.loop !114
}